; Function Attrs: mustprogress uwtable
define void @_ZNK32pxrInternal_v0_24__pxrReserved__15HioGlslfxConfig13GetSourceKeysB5cxx11ERKNS_7TfTokenE(ptr dead_on_unwind noalias writable sret(%"class.std::vector.18") align 8 initializes((0, 24)) %0, ptr noundef nonnull align 8 dereferenceable(136) %1, ptr noundef nonnull align 8 dereferenceable(8) %2) local_unnamed_addr #0 align 2 personality ptr @__gxx_personality_v0 {
  tail call void @llvm.memset.p0.i64(ptr noundef nonnull align 8 dereferenceable(24) %0, i8 0, i64 24, i1 false)
  %4 = getelementptr inbounds nuw i8, ptr %1, i64 88
  %5 = invoke noundef zeroext i1 @_ZN32pxrInternal_v0_24__pxrReserved__18Tf_MapLookupHelperISt3mapINSt7__cxx1112basic_stringIcSt11char_traitsIcESaIcEEESt6vectorIS7_SaIS7_EESt4lessIS7_ESaISt4pairIKS7_SA_EEEE6LookupINS_7TfTokenESA_EEbRKSH_RKT_PT0_(ptr noundef nonnull align 8 dereferenceable(48) %4, ptr noundef nonnull align 8 dereferenceable(8) %2, ptr noundef nonnull %0)
          to label %_ZN32pxrInternal_v0_24__pxrReserved__11TfMapLookupISt3mapINSt7__cxx1112basic_stringIcSt11char_traitsIcESaIcEEESt6vectorIS7_SaIS7_EESt4lessIS7_ESaISt4pairIKS7_SA_EEENS_7TfTokenESA_EEbRKT_RKT0_PT1_.exit unwind label %6

6:                                                ; preds = %3
  %7 = landingpad { ptr, i32 }
          cleanup
  tail call void @_ZNSt6vectorINSt7__cxx1112basic_stringIcSt11char_traitsIcESaIcEEESaIS5_EED2Ev(ptr noundef nonnull align 8 dereferenceable(24) %0) #24
  resume { ptr, i32 } %7

_ZN32pxrInternal_v0_24__pxrReserved__11TfMapLookupISt3mapINSt7__cxx1112basic_stringIcSt11char_traitsIcESaIcEEESt6vectorIS7_SaIS7_EESt4lessIS7_ESaISt4pairIKS7_SA_EEENS_7TfTokenESA_EEbRKT_RKT0_PT1_.exit: ; preds = %3
  ret void
}